target datalayout = "e-m:e-p270:32:32-p271:32:32-p272:64:64-i64:64-i128:128-f80:128-n8:16:32:64-S128"
target triple = "x86_64-pc-linux-gnu"

%struct.acct_gather_energy = type { i32, i64, i64, i32, i64, i64, i64 }

@plugin_type = dso_local constant [24 x i8] c"acct_gather_energy/rapl\00", align 16
@local_energy = internal global ptr null, align 8
@.str = private unnamed_addr constant [63 x i8] c"%s: %s: trying to update node energy, but no local_energy yet.\00", align 1
@__func__.acct_gather_energy_p_update_node_energy = private unnamed_addr constant [40 x i8] c"acct_gather_energy_p_update_node_energy\00", align 1

; Function Attrs: nounwind uwtable
define dso_local i32 @acct_gather_energy_p_update_node_energy() #0 {
  %1 = alloca i32, align 4
  %2 = alloca i32, align 4
  %3 = alloca i32, align 4
  call void @llvm.lifetime.start.p0(i64 4, ptr %2) #8
  store i32 0, ptr %2, align 4
  %4 = load ptr, ptr @local_energy, align 8
  %5 = icmp ne ptr %4, null
  br i1 %5, label %17, label %6

6:                                                ; preds = %0
  br label %7

7:                                                ; preds = %6
  br label %8

8:                                                ; preds = %7
  %9 = call i32 @slurm_get_log_level()
  %10 = icmp sge i32 %9, 5
  br i1 %10, label %11, label %12

11:                                               ; preds = %8
  call void (i32, ptr, ...) @slurm_log_var(i32 noundef 5, ptr noundef @.str, ptr noundef @plugin_type, ptr noundef @__func__.acct_gather_energy_p_update_node_energy)
  br label %12

12:                                               ; preds = %11, %8
  br label %13

13:                                               ; preds = %12
  br label %14

14:                                               ; preds = %13
  br label %15

15:                                               ; preds = %14
  br label %16

16:                                               ; preds = %15
  call void @acct_gather_energy_p_conf_set(i32 noundef 0, ptr noundef null)
  br label %17

17:                                               ; preds = %16, %0
  %18 = load ptr, ptr @local_energy, align 8
  %19 = getelementptr inbounds nuw %struct.acct_gather_energy, ptr %18, i32 0, i32 3
  %20 = load i32, ptr %19, align 8
  %21 = icmp eq i32 %20, -2
  br i1 %21, label %22, label %24

22:                                               ; preds = %17
  %23 = load i32, ptr %2, align 4
  store i32 %23, ptr %1, align 4
  store i32 1, ptr %3, align 4
  br label %27

24:                                               ; preds = %17
  %25 = load ptr, ptr @local_energy, align 8
  call void @_get_joules_task(ptr noundef %25)
  %26 = load i32, ptr %2, align 4
  store i32 %26, ptr %1, align 4
  store i32 1, ptr %3, align 4
  br label %27

27:                                               ; preds = %24, %22
  call void @llvm.lifetime.end.p0(i64 4, ptr %2) #8
  %28 = load i32, ptr %1, align 4
  ret i32 %28
}