; Function Attrs: nounwind uwtable
define dso_local noundef i32 @acct_gather_energy_p_update_node_energy() local_unnamed_addr #0 {
  %1 = load ptr, ptr @local_energy, align 8
  %.not = icmp eq ptr %1, null
  br i1 %.not, label %2, label %7

2:                                                ; preds = %0
  %3 = tail call i32 @slurm_get_log_level() #11
  %4 = icmp sgt i32 %3, 4
  br i1 %4, label %5, label %6

5:                                                ; preds = %2
  tail call void (i32, ptr, ...) @slurm_log_var(i32 noundef 5, ptr noundef nonnull @.str, ptr noundef nonnull @plugin_type, ptr noundef nonnull @__func__.acct_gather_energy_p_update_node_energy) #11
  br label %6

6:                                                ; preds = %5, %2
  tail call void @acct_gather_energy_p_conf_set(i32 poison, ptr poison)
  %.pre = load ptr, ptr @local_energy, align 8
  br label %7

7:                                                ; preds = %6, %0
  %8 = phi ptr [ %.pre, %6 ], [ %1, %0 ]
  %9 = getelementptr inbounds nuw i8, ptr %8, i64 24
  %10 = load i32, ptr %9, align 8
  %11 = icmp eq i32 %10, -2
  br i1 %11, label %13, label %12

12:                                               ; preds = %7
  tail call fastcc void @_get_joules_task(ptr noundef nonnull %8)
  br label %13

13:                                               ; preds = %7, %12
  ret i32 0
}